target datalayout = "e-m:e-p270:32:32-p271:32:32-p272:64:64-i64:64-i128:128-f80:128-n8:16:32:64-S128"
target triple = "x86_64-pc-linux-gnu"

%struct.luaL_Buffer = type { ptr, i32, ptr, [8192 x i8] }

@.str.30 = private unnamed_addr constant [2 x i8] c"?\00", align 1
@.str.31 = private unnamed_addr constant [15 x i8] c"\0A\09no file '%s'\00", align 1
@.str.32 = private unnamed_addr constant [2 x i8] c";\00", align 1
@.str.33 = private unnamed_addr constant [2 x i8] c"r\00", align 1

; Function Attrs: nounwind uwtable
define internal i32 @readable(ptr noundef %0) #0 {
  %2 = alloca i32, align 4
  %3 = alloca ptr, align 8
  %4 = alloca ptr, align 8
  %5 = alloca i32, align 4
  store ptr %0, ptr %3, align 8, !tbaa !14
  call void @llvm.lifetime.start.p0(i64 8, ptr %4) #5
  %6 = load ptr, ptr %3, align 8, !tbaa !14
  %7 = call noalias ptr @fopen64(ptr noundef %6, ptr noundef @.str.33)
  store ptr %7, ptr %4, align 8, !tbaa !19
  %8 = load ptr, ptr %4, align 8, !tbaa !19
  %9 = icmp eq ptr %8, null
  br i1 %9, label %10, label %11

10:                                               ; preds = %1
  store i32 0, ptr %2, align 4
  store i32 1, ptr %5, align 4
  br label %14

11:                                               ; preds = %1
  %12 = load ptr, ptr %4, align 8, !tbaa !19
  %13 = call i32 @fclose(ptr noundef %12)
  store i32 1, ptr %2, align 4
  store i32 1, ptr %5, align 4
  br label %14

14:                                               ; preds = %11, %10
  call void @llvm.lifetime.end.p0(i64 8, ptr %4) #5
  %15 = load i32, ptr %2, align 4
  ret i32 %15
}

; Function Attrs: nounwind uwtable
define internal ptr @pushnexttemplate(ptr noundef %0, ptr noundef %1) #0 {
  %3 = alloca ptr, align 8
  %4 = alloca ptr, align 8
  %5 = alloca ptr, align 8
  %6 = alloca ptr, align 8
  %7 = alloca i32, align 4
  store ptr %0, ptr %4, align 8, !tbaa !4
  store ptr %1, ptr %5, align 8, !tbaa !14
  call void @llvm.lifetime.start.p0(i64 8, ptr %6) #5
  br label %8

8:                                                ; preds = %15, %2
  %9 = load ptr, ptr %5, align 8, !tbaa !14
  %10 = load i8, ptr %9, align 1, !tbaa !16
  %11 = sext i8 %10 to i32
  %12 = load i8, ptr @.str.32, align 1, !tbaa !16
  %13 = sext i8 %12 to i32
  %14 = icmp eq i32 %11, %13
  br i1 %14, label %15, label %18

15:                                               ; preds = %8
  %16 = load ptr, ptr %5, align 8, !tbaa !14
  %17 = getelementptr inbounds nuw i8, ptr %16, i32 1
  store ptr %17, ptr %5, align 8, !tbaa !14
  br label %8, !llvm.loop !18

18:                                               ; preds = %8
  %19 = load ptr, ptr %5, align 8, !tbaa !14
  %20 = load i8, ptr %19, align 1, !tbaa !16
  %21 = sext i8 %20 to i32
  %22 = icmp eq i32 %21, 0
  br i1 %22, label %23, label %24

23:                                               ; preds = %18
  store ptr null, ptr %3, align 8
  store i32 1, ptr %7, align 4
  br label %45

24:                                               ; preds = %18
  %25 = load ptr, ptr %5, align 8, !tbaa !14
  %26 = load i8, ptr @.str.32, align 1, !tbaa !16
  %27 = sext i8 %26 to i32
  %28 = call ptr @strchr(ptr noundef %25, i32 noundef %27) #6
  store ptr %28, ptr %6, align 8, !tbaa !14
  %29 = load ptr, ptr %6, align 8, !tbaa !14
  %30 = icmp eq ptr %29, null
  br i1 %30, label %31, label %36

31:                                               ; preds = %24
  %32 = load ptr, ptr %5, align 8, !tbaa !14
  %33 = load ptr, ptr %5, align 8, !tbaa !14
  %34 = call i64 @strlen(ptr noundef %33) #6
  %35 = getelementptr inbounds nuw i8, ptr %32, i64 %34
  store ptr %35, ptr %6, align 8, !tbaa !14
  br label %36

36:                                               ; preds = %31, %24
  %37 = load ptr, ptr %4, align 8, !tbaa !4
  %38 = load ptr, ptr %5, align 8, !tbaa !14
  %39 = load ptr, ptr %6, align 8, !tbaa !14
  %40 = load ptr, ptr %5, align 8, !tbaa !14
  %41 = ptrtoint ptr %39 to i64
  %42 = ptrtoint ptr %40 to i64
  %43 = sub i64 %41, %42
  call void @lua_pushlstring(ptr noundef %37, ptr noundef %38, i64 noundef %43)
  %44 = load ptr, ptr %6, align 8, !tbaa !14
  store ptr %44, ptr %3, align 8
  store i32 1, ptr %7, align 4
  br label %45

45:                                               ; preds = %36, %23
  call void @llvm.lifetime.end.p0(i64 8, ptr %6) #5
  %46 = load ptr, ptr %3, align 8
  ret ptr %46
}

; Function Attrs: nounwind uwtable
define internal ptr @searchpath(ptr noundef %0, ptr noundef %1, ptr noundef %2, ptr noundef %3, ptr noundef %4) #0 {
  %6 = alloca ptr, align 8
  %7 = alloca ptr, align 8
  %8 = alloca ptr, align 8
  %9 = alloca ptr, align 8
  %10 = alloca ptr, align 8
  %11 = alloca ptr, align 8
  %12 = alloca %struct.luaL_Buffer, align 8
  %13 = alloca ptr, align 8
  %14 = alloca i32, align 4
  store ptr %0, ptr %7, align 8, !tbaa !4
  store ptr %1, ptr %8, align 8, !tbaa !14
  store ptr %2, ptr %9, align 8, !tbaa !14
  store ptr %3, ptr %10, align 8, !tbaa !14
  store ptr %4, ptr %11, align 8, !tbaa !14
  call void @llvm.lifetime.start.p0(i64 8216, ptr %12) #5
  %15 = load ptr, ptr %7, align 8, !tbaa !4
  call void @luaL_buffinit(ptr noundef %15, ptr noundef %12)
  %16 = load ptr, ptr %10, align 8, !tbaa !14
  %17 = load i8, ptr %16, align 1, !tbaa !16
  %18 = sext i8 %17 to i32
  %19 = icmp ne i32 %18, 0
  br i1 %19, label %20, label %26

20:                                               ; preds = %5
  %21 = load ptr, ptr %7, align 8, !tbaa !4
  %22 = load ptr, ptr %8, align 8, !tbaa !14
  %23 = load ptr, ptr %10, align 8, !tbaa !14
  %24 = load ptr, ptr %11, align 8, !tbaa !14
  %25 = call ptr @luaL_gsub(ptr noundef %21, ptr noundef %22, ptr noundef %23, ptr noundef %24)
  store ptr %25, ptr %8, align 8, !tbaa !14
  br label %26

26:                                               ; preds = %20, %5
  br label %27

27:                                               ; preds = %51, %26
  %28 = load ptr, ptr %7, align 8, !tbaa !4
  %29 = load ptr, ptr %9, align 8, !tbaa !14
  %30 = call ptr @pushnexttemplate(ptr noundef %28, ptr noundef %29)
  store ptr %30, ptr %9, align 8, !tbaa !14
  %31 = icmp ne ptr %30, null
  br i1 %31, label %32, label %52

32:                                               ; preds = %27
  call void @llvm.lifetime.start.p0(i64 8, ptr %13) #5
  %33 = load ptr, ptr %7, align 8, !tbaa !4
  %34 = load ptr, ptr %7, align 8, !tbaa !4
  %35 = call ptr @lua_tolstring(ptr noundef %34, i32 noundef -1, ptr noundef null)
  %36 = load ptr, ptr %8, align 8, !tbaa !14
  %37 = call ptr @luaL_gsub(ptr noundef %33, ptr noundef %35, ptr noundef @.str.30, ptr noundef %36)
  store ptr %37, ptr %13, align 8, !tbaa !14
  %38 = load ptr, ptr %7, align 8, !tbaa !4
  call void @lua_remove(ptr noundef %38, i32 noundef -2)
  %39 = load ptr, ptr %13, align 8, !tbaa !14
  %40 = call i32 @readable(ptr noundef %39)
  %41 = icmp ne i32 %40, 0
  br i1 %41, label %42, label %44

42:                                               ; preds = %32
  %43 = load ptr, ptr %13, align 8, !tbaa !14
  store ptr %43, ptr %6, align 8
  store i32 1, ptr %14, align 4
  br label %49

44:                                               ; preds = %32
  %45 = load ptr, ptr %7, align 8, !tbaa !4
  %46 = load ptr, ptr %13, align 8, !tbaa !14
  %47 = call ptr (ptr, ptr, ...) @lua_pushfstring(ptr noundef %45, ptr noundef @.str.31, ptr noundef %46)
  %48 = load ptr, ptr %7, align 8, !tbaa !4
  call void @lua_remove(ptr noundef %48, i32 noundef -2)
  call void @luaL_addvalue(ptr noundef %12)
  store i32 0, ptr %14, align 4
  br label %49

49:                                               ; preds = %44, %42
  call void @llvm.lifetime.end.p0(i64 8, ptr %13) #5
  %50 = load i32, ptr %14, align 4
  switch i32 %50, label %53 [
    i32 0, label %51
  ]

51:                                               ; preds = %49
  br label %27, !llvm.loop !17

52:                                               ; preds = %27
  call void @luaL_pushresult(ptr noundef %12)
  store ptr null, ptr %6, align 8
  store i32 1, ptr %14, align 4
  br label %53

53:                                               ; preds = %52, %49
  call void @llvm.lifetime.end.p0(i64 8216, ptr %12) #5
  %54 = load ptr, ptr %6, align 8
  ret ptr %54
}