; Function Attrs: nounwind uwtable
define internal fastcc ptr @searchpath(ptr noundef %0, ptr noundef %1, ptr noundef %2, ptr noundef %3, ptr noundef %4) unnamed_addr #0 {
  %6 = alloca %struct.luaL_Buffer, align 8
  call void @llvm.lifetime.start.p0(i64 8216, ptr nonnull %6) #7
  call void @luaL_buffinit(ptr noundef %0, ptr noundef nonnull %6) #7
  %7 = load i8, ptr %3, align 1, !tbaa !10
  %.not = icmp eq i8 %7, 0
  br i1 %.not, label %10, label %8

8:                                                ; preds = %5
  %9 = call ptr @luaL_gsub(ptr noundef %0, ptr noundef %1, ptr noundef nonnull %3, ptr noundef %4) #7
  br label %10

10:                                               ; preds = %8, %5
  %.019 = phi ptr [ %9, %8 ], [ %1, %5 ]
  br label %11

11:                                               ; preds = %.backedge, %10
  %.013.i = phi ptr [ %2, %10 ], [ %.013.i.be, %.backedge ]
  %12 = load i8, ptr %.013.i, align 1, !tbaa !10
  switch i8 %12, label %15 [
    i8 59, label %13
    i8 0, label %32
  ]

13:                                               ; preds = %11
  %14 = getelementptr inbounds nuw i8, ptr %.013.i, i64 1
  br label %.backedge

.backedge:                                        ; preds = %13, %30
  %.013.i.be = phi ptr [ %14, %13 ], [ %.0.i, %30 ]
  br label %11, !llvm.loop !11

15:                                               ; preds = %11
  %16 = call ptr @strchr(ptr noundef nonnull dereferenceable(1) %.013.i, i32 noundef 59) #8
  %17 = icmp eq ptr %16, null
  br i1 %17, label %18, label %21

18:                                               ; preds = %15
  %19 = call i64 @strlen(ptr noundef nonnull dereferenceable(1) %.013.i) #8
  %20 = getelementptr inbounds nuw i8, ptr %.013.i, i64 %19
  br label %21

21:                                               ; preds = %18, %15
  %.0.i = phi ptr [ %20, %18 ], [ %16, %15 ]
  %22 = ptrtoint ptr %.0.i to i64
  %23 = ptrtoint ptr %.013.i to i64
  %24 = sub i64 %22, %23
  call void @lua_pushlstring(ptr noundef %0, ptr noundef nonnull %.013.i, i64 noundef %24) #7
  %25 = call ptr @lua_tolstring(ptr noundef %0, i32 noundef -1, ptr noundef null) #7
  %26 = call ptr @luaL_gsub(ptr noundef %0, ptr noundef %25, ptr noundef nonnull @.str.30, ptr noundef %.019) #7
  call void @lua_remove(ptr noundef %0, i32 noundef -2) #7
  %27 = call noalias ptr @fopen64(ptr noundef readonly %26, ptr noundef nonnull @.str.33)
  %28 = icmp eq ptr %27, null
  br i1 %28, label %30, label %.thread

.thread:                                          ; preds = %21
  %29 = call i32 @fclose(ptr noundef nonnull %27)
  br label %33

30:                                               ; preds = %21
  %31 = call ptr (ptr, ptr, ...) @lua_pushfstring(ptr noundef %0, ptr noundef nonnull @.str.31, ptr noundef %26) #7
  call void @lua_remove(ptr noundef %0, i32 noundef -2) #7
  call void @luaL_addvalue(ptr noundef nonnull %6) #7
  br label %.backedge

32:                                               ; preds = %11
  call void @luaL_pushresult(ptr noundef nonnull %6) #7
  br label %33

33:                                               ; preds = %.thread, %32
  %.2 = phi ptr [ null, %32 ], [ %26, %.thread ]
  call void @llvm.lifetime.end.p0(i64 8216, ptr nonnull %6) #7
  ret ptr %.2
}